target datalayout = "e-m:e-p270:32:32-p271:32:32-p272:64:64-i64:64-i128:128-f80:128-n8:16:32:64-S128"
target triple = "x86_64-pc-linux-gnu"

; Function Attrs: nounwind sspstrong uwtable
define internal i32 @case_map(ptr noundef %0, ptr noundef %1, ptr noundef %2, ptr noundef %3, ptr noundef %4, ptr noundef %5) #0 {
  %7 = alloca ptr, align 8
  %8 = alloca ptr, align 8
  %9 = alloca ptr, align 8
  %10 = alloca ptr, align 8
  %11 = alloca ptr, align 8
  %12 = alloca ptr, align 8
  %13 = alloca i32, align 4
  %14 = alloca ptr, align 8
  %15 = alloca i32, align 4
  store ptr %0, ptr %7, align 8, !tbaa !23
  store ptr %1, ptr %8, align 8, !tbaa !14
  store ptr %2, ptr %9, align 8, !tbaa !16
  store ptr %3, ptr %10, align 8, !tbaa !16
  store ptr %4, ptr %11, align 8, !tbaa !16
  store ptr %5, ptr %12, align 8, !tbaa !17
  call void @llvm.lifetime.start.p0(i64 4, ptr %13) #3
  call void @llvm.lifetime.start.p0(i64 8, ptr %14) #3
  %16 = load ptr, ptr %10, align 8, !tbaa !16
  store ptr %16, ptr %14, align 8, !tbaa !16
  call void @llvm.lifetime.start.p0(i64 4, ptr %15) #3
  %17 = load ptr, ptr %7, align 8, !tbaa !23
  %18 = load i32, ptr %17, align 4, !tbaa !13
  store i32 %18, ptr %15, align 4, !tbaa !13
  br label %19

19:                                               ; preds = %134, %6
  %20 = load ptr, ptr %8, align 8, !tbaa !14
  %21 = load ptr, ptr %20, align 8, !tbaa !16
  %22 = load ptr, ptr %9, align 8, !tbaa !16
  %23 = icmp ult ptr %21, %22
  br i1 %23, label %24, label %28

24:                                               ; preds = %19
  %25 = load ptr, ptr %10, align 8, !tbaa !16
  %26 = load ptr, ptr %11, align 8, !tbaa !16
  %27 = icmp ult ptr %25, %26
  br label %28

28:                                               ; preds = %24, %19
  %29 = phi i1 [ false, %19 ], [ %27, %24 ]
  br i1 %29, label %30, label %135

30:                                               ; preds = %28
  %31 = load ptr, ptr %8, align 8, !tbaa !14
  %32 = load ptr, ptr %31, align 8, !tbaa !16
  %33 = getelementptr inbounds nuw i8, ptr %32, i32 1
  store ptr %33, ptr %31, align 8, !tbaa !16
  %34 = load i8, ptr %32, align 1, !tbaa !19
  %35 = zext i8 %34 to i32
  store i32 %35, ptr %13, align 4, !tbaa !13
  %36 = load i32, ptr %13, align 4, !tbaa !13
  %37 = icmp eq i32 %36, 223
  br i1 %37, label %38, label %62

38:                                               ; preds = %30
  %39 = load i32, ptr %15, align 4, !tbaa !13
  %40 = and i32 %39, 8192
  %41 = icmp ne i32 %40, 0
  br i1 %41, label %42, label %51

42:                                               ; preds = %38
  %43 = load i32, ptr %15, align 4, !tbaa !13
  %44 = or i32 %43, 262144
  store i32 %44, ptr %15, align 4, !tbaa !13
  %45 = load ptr, ptr %10, align 8, !tbaa !16
  %46 = getelementptr inbounds nuw i8, ptr %45, i32 1
  store ptr %46, ptr %10, align 8, !tbaa !16
  store i8 83, ptr %45, align 1, !tbaa !19
  %47 = load i32, ptr %15, align 4, !tbaa !13
  %48 = and i32 %47, 32768
  %49 = icmp ne i32 %48, 0
  %50 = select i1 %49, i32 115, i32 83
  store i32 %50, ptr %13, align 4, !tbaa !13
  br label %61

51:                                               ; preds = %38
  %52 = load i32, ptr %15, align 4, !tbaa !13
  %53 = and i32 %52, 524288
  %54 = icmp ne i32 %53, 0
  br i1 %54, label %55, label %60

55:                                               ; preds = %51
  %56 = load i32, ptr %15, align 4, !tbaa !13
  %57 = or i32 %56, 262144
  store i32 %57, ptr %15, align 4, !tbaa !13
  %58 = load ptr, ptr %10, align 8, !tbaa !16
  %59 = getelementptr inbounds nuw i8, ptr %58, i32 1
  store ptr %59, ptr %10, align 8, !tbaa !16
  store i8 115, ptr %58, align 1, !tbaa !19
  store i32 115, ptr %13, align 4, !tbaa !13
  br label %60

60:                                               ; preds = %55, %51
  br label %61

61:                                               ; preds = %60, %42
  br label %123

62:                                               ; preds = %30
  %63 = load i32, ptr %13, align 4, !tbaa !13
  %64 = zext i32 %63 to i64
  %65 = getelementptr inbounds nuw [256 x i16], ptr @EncISO_8859_4_CtypeTable, i64 0, i64 %64
  %66 = load i16, ptr %65, align 2, !tbaa !21
  %67 = zext i16 %66 to i32
  %68 = and i32 %67, 1024
  %69 = icmp ne i32 %68, 0
  br i1 %69, label %70, label %82

70:                                               ; preds = %62
  %71 = load i32, ptr %15, align 4, !tbaa !13
  %72 = and i32 %71, 540672
  %73 = icmp ne i32 %72, 0
  br i1 %73, label %74, label %82

74:                                               ; preds = %70
  %75 = load i32, ptr %15, align 4, !tbaa !13
  %76 = or i32 %75, 262144
  store i32 %76, ptr %15, align 4, !tbaa !13
  %77 = load i32, ptr %13, align 4, !tbaa !13
  %78 = zext i32 %77 to i64
  %79 = getelementptr inbounds nuw [256 x i8], ptr @EncISO_8859_4_ToLowerCaseTable, i64 0, i64 %78
  %80 = load i8, ptr %79, align 1, !tbaa !19
  %81 = zext i8 %80 to i32
  store i32 %81, ptr %13, align 4, !tbaa !13
  br label %122

82:                                               ; preds = %70, %62
  %83 = load i32, ptr %13, align 4, !tbaa !13
  %84 = icmp eq i32 %83, 162
  br i1 %84, label %85, label %86

85:                                               ; preds = %82
  br label %121

86:                                               ; preds = %82
  %87 = load i32, ptr %13, align 4, !tbaa !13
  %88 = zext i32 %87 to i64
  %89 = getelementptr inbounds nuw [256 x i16], ptr @EncISO_8859_4_CtypeTable, i64 0, i64 %88
  %90 = load i16, ptr %89, align 2, !tbaa !21
  %91 = zext i16 %90 to i32
  %92 = and i32 %91, 64
  %93 = icmp ne i32 %92, 0
  br i1 %93, label %94, label %120

94:                                               ; preds = %86
  %95 = load i32, ptr %15, align 4, !tbaa !13
  %96 = and i32 %95, 8192
  %97 = icmp ne i32 %96, 0
  br i1 %97, label %98, label %120

98:                                               ; preds = %94
  %99 = load i32, ptr %15, align 4, !tbaa !13
  %100 = or i32 %99, 262144
  store i32 %100, ptr %15, align 4, !tbaa !13
  %101 = load i32, ptr %13, align 4, !tbaa !13
  %102 = icmp uge i32 %101, 160
  br i1 %102, label %103, label %116

103:                                              ; preds = %98
  %104 = load i32, ptr %13, align 4, !tbaa !13
  %105 = icmp ule i32 %104, 191
  br i1 %105, label %106, label %116

106:                                              ; preds = %103
  %107 = load i32, ptr %13, align 4, !tbaa !13
  %108 = icmp eq i32 %107, 191
  br i1 %108, label %109, label %112

109:                                              ; preds = %106
  %110 = load i32, ptr %13, align 4, !tbaa !13
  %111 = sub i32 %110, 2
  store i32 %111, ptr %13, align 4, !tbaa !13
  br label %115

112:                                              ; preds = %106
  %113 = load i32, ptr %13, align 4, !tbaa !13
  %114 = sub i32 %113, 16
  store i32 %114, ptr %13, align 4, !tbaa !13
  br label %115

115:                                              ; preds = %112, %109
  br label %119

116:                                              ; preds = %103, %98
  %117 = load i32, ptr %13, align 4, !tbaa !13
  %118 = sub i32 %117, 32
  store i32 %118, ptr %13, align 4, !tbaa !13
  br label %119

119:                                              ; preds = %116, %115
  br label %120

120:                                              ; preds = %119, %94, %86
  br label %121

121:                                              ; preds = %120, %85
  br label %122

122:                                              ; preds = %121, %74
  br label %123

123:                                              ; preds = %122, %61
  %124 = load i32, ptr %13, align 4, !tbaa !13
  %125 = trunc i32 %124 to i8
  %126 = load ptr, ptr %10, align 8, !tbaa !16
  %127 = getelementptr inbounds nuw i8, ptr %126, i32 1
  store ptr %127, ptr %10, align 8, !tbaa !16
  store i8 %125, ptr %126, align 1, !tbaa !19
  %128 = load i32, ptr %15, align 4, !tbaa !13
  %129 = and i32 %128, 32768
  %130 = icmp ne i32 %129, 0
  br i1 %130, label %131, label %134

131:                                              ; preds = %123
  %132 = load i32, ptr %15, align 4, !tbaa !13
  %133 = xor i32 %132, 57344
  store i32 %133, ptr %15, align 4, !tbaa !13
  br label %134

134:                                              ; preds = %131, %123
  br label %19, !llvm.loop !25

135:                                              ; preds = %28
  %136 = load i32, ptr %15, align 4, !tbaa !13
  %137 = load ptr, ptr %7, align 8, !tbaa !23
  store i32 %136, ptr %137, align 4, !tbaa !13
  %138 = load ptr, ptr %10, align 8, !tbaa !16
  %139 = load ptr, ptr %14, align 8, !tbaa !16
  %140 = ptrtoint ptr %138 to i64
  %141 = ptrtoint ptr %139 to i64
  %142 = sub i64 %140, %141
  %143 = trunc i64 %142 to i32
  call void @llvm.lifetime.end.p0(i64 4, ptr %15) #3
  call void @llvm.lifetime.end.p0(i64 8, ptr %14) #3
  call void @llvm.lifetime.end.p0(i64 4, ptr %13) #3
  ret i32 %143
}