; Function Attrs: nofree norecurse nosync nounwind sspstrong memory(read, argmem: readwrite, inaccessiblemem: none) uwtable
define internal i32 @case_map(ptr noundef captures(none) %0, ptr noundef captures(none) %1, ptr noundef readnone captures(address) %2, ptr noundef %3, ptr noundef readnone captures(address) %4, ptr readnone captures(none) %5) #4 {
  %7 = load i32, ptr %0, align 4, !tbaa !14
  %8 = load ptr, ptr %1, align 8, !tbaa !6
  %9 = icmp ult ptr %8, %2
  %10 = icmp ult ptr %3, %4
  %11 = and i1 %9, %10
  br i1 %11, label %.lr.ph, label %._crit_edge

.lr.ph:                                           ; preds = %6, %51
  %12 = phi ptr [ %55, %51 ], [ %8, %6 ]
  %.054 = phi i32 [ %spec.select, %51 ], [ %7, %6 ]
  %.03753 = phi ptr [ %52, %51 ], [ %3, %6 ]
  %13 = getelementptr inbounds nuw i8, ptr %12, i64 1
  store ptr %13, ptr %1, align 8, !tbaa !6
  %14 = load i8, ptr %12, align 1, !tbaa !11
  %15 = icmp eq i8 %14, -33
  br i1 %15, label %16, label %28

16:                                               ; preds = %.lr.ph
  %17 = and i32 %.054, 8192
  %.not46 = icmp eq i32 %17, 0
  br i1 %.not46, label %23, label %18

18:                                               ; preds = %16
  %19 = or i32 %.054, 262144
  %20 = getelementptr inbounds nuw i8, ptr %.03753, i64 1
  store i8 83, ptr %.03753, align 1, !tbaa !11
  %21 = and i32 %.054, 32768
  %.not48 = icmp eq i32 %21, 0
  %22 = select i1 %.not48, i8 83, i8 115
  br label %51

23:                                               ; preds = %16
  %24 = and i32 %.054, 524288
  %.not47 = icmp eq i32 %24, 0
  br i1 %.not47, label %51, label %25

25:                                               ; preds = %23
  %26 = or i32 %.054, 262144
  %27 = getelementptr inbounds nuw i8, ptr %.03753, i64 1
  store i8 115, ptr %.03753, align 1, !tbaa !11
  br label %51

28:                                               ; preds = %.lr.ph
  %29 = zext i8 %14 to i64
  %30 = getelementptr inbounds nuw [256 x i16], ptr @EncISO_8859_4_CtypeTable, i64 0, i64 %29
  %31 = load i16, ptr %30, align 2, !tbaa !12
  %32 = and i16 %31, 1024
  %.not = icmp eq i16 %32, 0
  %33 = and i32 %.054, 540672
  %.not43 = icmp eq i32 %33, 0
  %or.cond50 = select i1 %.not, i1 true, i1 %.not43
  br i1 %or.cond50, label %38, label %34

34:                                               ; preds = %28
  %35 = or i32 %.054, 262144
  %36 = getelementptr inbounds nuw [256 x i8], ptr @EncISO_8859_4_ToLowerCaseTable, i64 0, i64 %29
  %37 = load i8, ptr %36, align 1, !tbaa !11
  br label %51

38:                                               ; preds = %28
  %39 = icmp eq i8 %14, -94
  br i1 %39, label %51, label %40

40:                                               ; preds = %38
  %41 = and i16 %31, 64
  %.not44 = icmp eq i16 %41, 0
  %42 = and i32 %.054, 8192
  %.not45 = icmp eq i32 %42, 0
  %or.cond51 = select i1 %.not44, i1 true, i1 %.not45
  br i1 %or.cond51, label %51, label %43

43:                                               ; preds = %40
  %44 = or i32 %.054, 262144
  %45 = and i8 %14, -32
  %or.cond = icmp eq i8 %45, -96
  br i1 %or.cond, label %46, label %49

46:                                               ; preds = %43
  %47 = icmp eq i8 %14, -65
  %48 = add nsw i8 %14, -16
  %spec.select52 = select i1 %47, i8 -67, i8 %48
  br label %51

49:                                               ; preds = %43
  %50 = add i8 %14, -32
  br label %51

51:                                               ; preds = %46, %34, %40, %49, %38, %18, %25, %23
  %.039 = phi i8 [ %22, %18 ], [ 115, %25 ], [ -33, %23 ], [ %37, %34 ], [ -94, %38 ], [ %50, %49 ], [ %14, %40 ], [ %spec.select52, %46 ]
  %.138 = phi ptr [ %20, %18 ], [ %27, %25 ], [ %.03753, %23 ], [ %.03753, %34 ], [ %.03753, %38 ], [ %.03753, %49 ], [ %.03753, %40 ], [ %.03753, %46 ]
  %.1 = phi i32 [ %19, %18 ], [ %26, %25 ], [ %.054, %23 ], [ %35, %34 ], [ %.054, %38 ], [ %44, %49 ], [ %.054, %40 ], [ %44, %46 ]
  %52 = getelementptr inbounds nuw i8, ptr %.138, i64 1
  store i8 %.039, ptr %.138, align 1, !tbaa !11
  %53 = and i32 %.1, 32768
  %.not49 = icmp eq i32 %53, 0
  %54 = xor i32 %.1, 57344
  %spec.select = select i1 %.not49, i32 %.1, i32 %54
  %55 = load ptr, ptr %1, align 8, !tbaa !6
  %56 = icmp ult ptr %55, %2
  %57 = icmp ult ptr %52, %4
  %58 = select i1 %56, i1 %57, i1 false
  br i1 %58, label %.lr.ph, label %._crit_edge, !llvm.loop !16

._crit_edge:                                      ; preds = %51, %6
  %.037.lcssa = phi ptr [ %3, %6 ], [ %52, %51 ]
  %.0.lcssa = phi i32 [ %7, %6 ], [ %spec.select, %51 ]
  store i32 %.0.lcssa, ptr %0, align 4, !tbaa !14
  %59 = ptrtoint ptr %.037.lcssa to i64
  %60 = ptrtoint ptr %3 to i64
  %61 = sub i64 %59, %60
  %62 = trunc i64 %61 to i32
  ret i32 %62
}